; Function Attrs: mustprogress uwtable
define internal void @_ZL20DOCTEST_ANON_FUNC_58v() #4 personality ptr @__gxx_personality_v0 {
  %1 = alloca %"class.std::unique_ptr", align 8
  %2 = tail call noundef ptr @_Z12lua_newstatePFPvS_S_mmES_(ptr noundef nonnull @_ZL14limitedReallocPvS_mm, ptr noundef null)
  call fastcc void @_ZL14runConformancePKcPFvP9lua_StateES4_S2_P18lua_CompileOptionsbPN4Luau7CodeGen18CompilationOptionsE(ptr dead_on_unwind noalias nonnull writable align 8 %1, ptr noundef nonnull @.str.258, ptr noundef nonnull @"_ZZL20DOCTEST_ANON_FUNC_58vEN3$_08__invokeEP9lua_State", ptr noundef null, ptr noundef %2, ptr noundef null, i1 noundef zeroext false, ptr noundef null)
  %3 = getelementptr inbounds i8, ptr %1, i64 8
  %4 = load ptr, ptr %3, align 8
  %.not.i = icmp eq ptr %4, null
  br i1 %.not.i, label %_ZNSt10unique_ptrI9lua_StatePFvPS0_EED2Ev.exit, label %5

5:                                                ; preds = %0
  %6 = load ptr, ptr %1, align 8
  invoke void %6(ptr noundef nonnull %4)
          to label %_ZNSt10unique_ptrI9lua_StatePFvPS0_EED2Ev.exit unwind label %7

7:                                                ; preds = %5
  %8 = landingpad { ptr, i32 }
          catch ptr null
  %9 = extractvalue { ptr, i32 } %8, 0
  tail call void @__clang_call_terminate(ptr %9) #36
  unreachable

_ZNSt10unique_ptrI9lua_StatePFvPS0_EED2Ev.exit:   ; preds = %0, %5
  ret void
}